target datalayout = "e-m:e-p270:32:32-p271:32:32-p272:64:64-i64:64-i128:128-f80:128-n8:16:32:64-S128"
target triple = "x86_64-pc-linux-gnu"

%struct.AVFilterContext = type { ptr, ptr, ptr, ptr, ptr, i32, ptr, ptr, i32, ptr, ptr, i32, i32, ptr, ptr, ptr, ptr, i32, ptr, i32, i32 }
%struct.SiTiContext = type { ptr, i32, i32, i32, i64, ptr, float, float, float, float, float, float, ptr, ptr, i32, i32 }

@.str.10 = private unnamed_addr constant [134 x i8] c"SITI Summary:\0ATotal frames: %ld\0A\0ASpatial Information:\0AAverage: %f\0AMax: %f\0AMin: %f\0A\0ATemporal Information:\0AAverage: %f\0AMax: %f\0AMin: %f\0A\00", align 1

; Function Attrs: cold nounwind optsize uwtable
define internal void @uninit(ptr noundef %0) #0 {
  %2 = alloca ptr, align 8
  %3 = alloca ptr, align 8
  %4 = alloca float, align 4
  %5 = alloca float, align 4
  store ptr %0, ptr %2, align 8, !tbaa !4
  call void @llvm.lifetime.start.p0(i64 8, ptr %3) #6
  %6 = load ptr, ptr %2, align 8, !tbaa !4
  %7 = getelementptr inbounds nuw %struct.AVFilterContext, ptr %6, i32 0, i32 9
  %8 = load ptr, ptr %7, align 8, !tbaa !9
  store ptr %8, ptr %3, align 8, !tbaa !22
  %9 = load ptr, ptr %3, align 8, !tbaa !22
  %10 = getelementptr inbounds nuw %struct.SiTiContext, ptr %9, i32 0, i32 15
  %11 = load i32, ptr %10, align 4, !tbaa !30
  %12 = icmp ne i32 %11, 0
  br i1 %12, label %13, label %54

13:                                               ; preds = %1
  call void @llvm.lifetime.start.p0(i64 4, ptr %4) #6
  %14 = load ptr, ptr %3, align 8, !tbaa !22
  %15 = getelementptr inbounds nuw %struct.SiTiContext, ptr %14, i32 0, i32 10
  %16 = load float, ptr %15, align 8, !tbaa !31
  %17 = load ptr, ptr %3, align 8, !tbaa !22
  %18 = getelementptr inbounds nuw %struct.SiTiContext, ptr %17, i32 0, i32 4
  %19 = load i64, ptr %18, align 8, !tbaa !32
  %20 = uitofp i64 %19 to float
  %21 = fdiv nsz float %16, %20
  store float %21, ptr %4, align 4, !tbaa !33
  call void @llvm.lifetime.start.p0(i64 4, ptr %5) #6
  %22 = load ptr, ptr %3, align 8, !tbaa !22
  %23 = getelementptr inbounds nuw %struct.SiTiContext, ptr %22, i32 0, i32 11
  %24 = load float, ptr %23, align 4, !tbaa !34
  %25 = load ptr, ptr %3, align 8, !tbaa !22
  %26 = getelementptr inbounds nuw %struct.SiTiContext, ptr %25, i32 0, i32 4
  %27 = load i64, ptr %26, align 8, !tbaa !32
  %28 = uitofp i64 %27 to float
  %29 = fdiv nsz float %24, %28
  store float %29, ptr %5, align 4, !tbaa !33
  %30 = load ptr, ptr %2, align 8, !tbaa !4
  %31 = load ptr, ptr %3, align 8, !tbaa !22
  %32 = getelementptr inbounds nuw %struct.SiTiContext, ptr %31, i32 0, i32 4
  %33 = load i64, ptr %32, align 8, !tbaa !32
  %34 = load float, ptr %4, align 4, !tbaa !33
  %35 = fpext nsz float %34 to double
  %36 = load ptr, ptr %3, align 8, !tbaa !22
  %37 = getelementptr inbounds nuw %struct.SiTiContext, ptr %36, i32 0, i32 6
  %38 = load float, ptr %37, align 8, !tbaa !24
  %39 = fpext nsz float %38 to double
  %40 = load ptr, ptr %3, align 8, !tbaa !22
  %41 = getelementptr inbounds nuw %struct.SiTiContext, ptr %40, i32 0, i32 8
  %42 = load float, ptr %41, align 8, !tbaa !35
  %43 = fpext nsz float %42 to double
  %44 = load float, ptr %5, align 4, !tbaa !33
  %45 = fpext nsz float %44 to double
  %46 = load ptr, ptr %3, align 8, !tbaa !22
  %47 = getelementptr inbounds nuw %struct.SiTiContext, ptr %46, i32 0, i32 7
  %48 = load float, ptr %47, align 4, !tbaa !29
  %49 = fpext nsz float %48 to double
  %50 = load ptr, ptr %3, align 8, !tbaa !22
  %51 = getelementptr inbounds nuw %struct.SiTiContext, ptr %50, i32 0, i32 9
  %52 = load float, ptr %51, align 4, !tbaa !36
  %53 = fpext nsz float %52 to double
  call void (ptr, i32, ptr, ...) @av_log(ptr noundef %30, i32 noundef 32, ptr noundef @.str.10, i64 noundef %33, double noundef %35, double noundef %39, double noundef %43, double noundef %45, double noundef %49, double noundef %53)
  call void @llvm.lifetime.end.p0(i64 4, ptr %5) #6
  call void @llvm.lifetime.end.p0(i64 4, ptr %4) #6
  br label %54

54:                                               ; preds = %13, %1
  %55 = load ptr, ptr %3, align 8, !tbaa !22
  %56 = getelementptr inbounds nuw %struct.SiTiContext, ptr %55, i32 0, i32 5
  call void @av_freep(ptr noundef %56)
  %57 = load ptr, ptr %3, align 8, !tbaa !22
  %58 = getelementptr inbounds nuw %struct.SiTiContext, ptr %57, i32 0, i32 12
  call void @av_freep(ptr noundef %58)
  %59 = load ptr, ptr %3, align 8, !tbaa !22
  %60 = getelementptr inbounds nuw %struct.SiTiContext, ptr %59, i32 0, i32 13
  call void @av_freep(ptr noundef %60)
  call void @llvm.lifetime.end.p0(i64 8, ptr %3) #6
  ret void
}