; Function Attrs: cold nounwind optsize uwtable
define internal void @uninit(ptr noundef %0) #1 {
  %2 = getelementptr inbounds nuw i8, ptr %0, i64 72
  %3 = load ptr, ptr %2, align 8, !tbaa !4
  %4 = getelementptr inbounds nuw i8, ptr %3, i64 84
  %5 = load i32, ptr %4, align 4, !tbaa !26
  %.not = icmp eq i32 %5, 0
  br i1 %.not, label %30, label %6

6:                                                ; preds = %1
  %7 = getelementptr inbounds nuw i8, ptr %3, i64 56
  %8 = load float, ptr %7, align 8, !tbaa !27
  %9 = getelementptr inbounds nuw i8, ptr %3, i64 24
  %10 = load i64, ptr %9, align 8, !tbaa !28
  %11 = uitofp i64 %10 to float
  %12 = fdiv nsz float %8, %11
  %13 = getelementptr inbounds nuw i8, ptr %3, i64 60
  %14 = load float, ptr %13, align 4, !tbaa !29
  %15 = fdiv nsz float %14, %11
  %16 = fpext nsz float %12 to double
  %17 = getelementptr inbounds nuw i8, ptr %3, i64 40
  %18 = load float, ptr %17, align 8, !tbaa !20
  %19 = fpext nsz float %18 to double
  %20 = getelementptr inbounds nuw i8, ptr %3, i64 48
  %21 = load float, ptr %20, align 8, !tbaa !30
  %22 = fpext nsz float %21 to double
  %23 = fpext nsz float %15 to double
  %24 = getelementptr inbounds nuw i8, ptr %3, i64 44
  %25 = load float, ptr %24, align 4, !tbaa !25
  %26 = fpext nsz float %25 to double
  %27 = getelementptr inbounds nuw i8, ptr %3, i64 52
  %28 = load float, ptr %27, align 4, !tbaa !31
  %29 = fpext nsz float %28 to double
  tail call void (ptr, i32, ptr, ...) @av_log(ptr noundef nonnull %0, i32 noundef 32, ptr noundef nonnull @.str.10, i64 noundef %10, double noundef %16, double noundef %19, double noundef %22, double noundef %23, double noundef %26, double noundef %29) #7
  br label %30

30:                                               ; preds = %6, %1
  %31 = getelementptr inbounds nuw i8, ptr %3, i64 32
  tail call void @av_freep(ptr noundef nonnull %31) #7
  %32 = getelementptr inbounds nuw i8, ptr %3, i64 64
  tail call void @av_freep(ptr noundef nonnull %32) #7
  %33 = getelementptr inbounds nuw i8, ptr %3, i64 72
  tail call void @av_freep(ptr noundef nonnull %33) #7
  ret void
}